
_interrupt:

;Temporizador_Monedero.c,20 :: 		void interrupt() iv 0x0004 ics ICS_AUTO //interrupts
;Temporizador_Monedero.c,22 :: 		if (INTCON.f1 == 1) //interrupt on change on RA4 triggered
	BTFSS      INTCON+0, 1
	GOTO       L_interrupt0
;Temporizador_Monedero.c,24 :: 		INTCON.f7 = 0; //stop interrupts
	BCF        INTCON+0, 7
;Temporizador_Monedero.c,25 :: 		delay_ms(10);
	MOVLW      104
	MOVWF      R12
	MOVLW      228
	MOVWF      R13
L_interrupt1:
	DECFSZ     R13, 1
	GOTO       L_interrupt1
	DECFSZ     R12, 1
	GOTO       L_interrupt1
	NOP
;Temporizador_Monedero.c,26 :: 		if (COIN == 0)
	BTFSC      PORTA+0, 2
	GOTO       L_interrupt2
;Temporizador_Monedero.c,28 :: 		LED = 1;
	BSF        PORTA+0, 0
;Temporizador_Monedero.c,29 :: 		delay_ms(5);
	MOVLW      52
	MOVWF      R12
	MOVLW      241
	MOVWF      R13
L_interrupt3:
	DECFSZ     R13, 1
	GOTO       L_interrupt3
	DECFSZ     R12, 1
	GOTO       L_interrupt3
	NOP
	NOP
;Temporizador_Monedero.c,30 :: 		LED = 0;
	BCF        PORTA+0, 0
;Temporizador_Monedero.c,31 :: 		coins++;
	INCF       _coins+0, 1
;Temporizador_Monedero.c,32 :: 		}
L_interrupt2:
;Temporizador_Monedero.c,33 :: 		INTCON.f1 = 0; //clear interrupt flags
	BCF        INTCON+0, 1
;Temporizador_Monedero.c,34 :: 		INTCON.f7 = 1; //run interrupts
	BSF        INTCON+0, 7
;Temporizador_Monedero.c,35 :: 		}
L_interrupt0:
;Temporizador_Monedero.c,36 :: 		}
L_end_interrupt:
L__interrupt75:
	RETFIE     %s
; end of _interrupt

_main:

;Temporizador_Monedero.c,38 :: 		void main()
;Temporizador_Monedero.c,40 :: 		OSCCON = 0b11110000; //configure internal oscilator for 32Mhz
	MOVLW      240
	MOVWF      OSCCON+0
;Temporizador_Monedero.c,41 :: 		TRISA = 0b00111100;  //configure IO
	MOVLW      60
	MOVWF      TRISA+0
;Temporizador_Monedero.c,42 :: 		ANSELA = 0b00000000; //analog functions of pins disabled
	CLRF       ANSELA+0
;Temporizador_Monedero.c,43 :: 		WPUA = 0b00111100;   //configure weak pull-ups on input pins
	MOVLW      60
	MOVWF      WPUA+0
;Temporizador_Monedero.c,44 :: 		PORTA = 0b0000000;
	CLRF       PORTA+0
;Temporizador_Monedero.c,45 :: 		OPTION_REG.f7 = 0;   //enable weak pull-ups
	BCF        OPTION_REG+0, 7
;Temporizador_Monedero.c,46 :: 		OPTION_REG.f6 = 0; //interrupt on falling edge
	BCF        OPTION_REG+0, 6
;Temporizador_Monedero.c,47 :: 		INTCON = 0b00010000; //enables interrupts
	MOVLW      16
	MOVWF      INTCON+0
;Temporizador_Monedero.c,48 :: 		if (BT_TIME == 1)
	BTFSS      PORTA+0, 3
	GOTO       L_main4
;Temporizador_Monedero.c,50 :: 		price = EEPROM_read(0);
	CLRF       FARG_EEPROM_Read_Address+0
	CALL       _EEPROM_Read+0
	MOVF       R0, 0
	MOVWF      _price+0
;Temporizador_Monedero.c,51 :: 		time = EEPROM_read(1);
	MOVLW      1
	MOVWF      FARG_EEPROM_Read_Address+0
	CALL       _EEPROM_Read+0
	MOVF       R0, 0
	MOVWF      _time+0
;Temporizador_Monedero.c,52 :: 		LED = 1;
	BSF        PORTA+0, 0
;Temporizador_Monedero.c,53 :: 		delay_ms(250);
	MOVLW      11
	MOVWF      R11
	MOVLW      38
	MOVWF      R12
	MOVLW      93
	MOVWF      R13
L_main5:
	DECFSZ     R13, 1
	GOTO       L_main5
	DECFSZ     R12, 1
	GOTO       L_main5
	DECFSZ     R11, 1
	GOTO       L_main5
	NOP
	NOP
;Temporizador_Monedero.c,54 :: 		LED = 0;
	BCF        PORTA+0, 0
;Temporizador_Monedero.c,55 :: 		}
	GOTO       L_main6
L_main4:
;Temporizador_Monedero.c,58 :: 		price = default_price;
	MOVLW      1
	MOVWF      _price+0
;Temporizador_Monedero.c,59 :: 		time = default_time;
	MOVLW      5
	MOVWF      _time+0
;Temporizador_Monedero.c,60 :: 		EEPROM_write(0,price);
	CLRF       FARG_EEPROM_Write_Address+0
	MOVLW      1
	MOVWF      FARG_EEPROM_Write_data_+0
	CALL       _EEPROM_Write+0
;Temporizador_Monedero.c,61 :: 		EEPROM_write(1,time);
	MOVLW      1
	MOVWF      FARG_EEPROM_Write_Address+0
	MOVF       _time+0, 0
	MOVWF      FARG_EEPROM_Write_data_+0
	CALL       _EEPROM_Write+0
;Temporizador_Monedero.c,62 :: 		LED = 1;
	BSF        PORTA+0, 0
;Temporizador_Monedero.c,63 :: 		delay_ms(100);
	MOVLW      5
	MOVWF      R11
	MOVLW      15
	MOVWF      R12
	MOVLW      241
	MOVWF      R13
L_main7:
	DECFSZ     R13, 1
	GOTO       L_main7
	DECFSZ     R12, 1
	GOTO       L_main7
	DECFSZ     R11, 1
	GOTO       L_main7
;Temporizador_Monedero.c,64 :: 		LED = 0;
	BCF        PORTA+0, 0
;Temporizador_Monedero.c,65 :: 		delay_ms(50);
	MOVLW      3
	MOVWF      R11
	MOVLW      8
	MOVWF      R12
	MOVLW      119
	MOVWF      R13
L_main8:
	DECFSZ     R13, 1
	GOTO       L_main8
	DECFSZ     R12, 1
	GOTO       L_main8
	DECFSZ     R11, 1
	GOTO       L_main8
;Temporizador_Monedero.c,66 :: 		LED = 1;
	BSF        PORTA+0, 0
;Temporizador_Monedero.c,67 :: 		delay_ms(100);
	MOVLW      5
	MOVWF      R11
	MOVLW      15
	MOVWF      R12
	MOVLW      241
	MOVWF      R13
L_main9:
	DECFSZ     R13, 1
	GOTO       L_main9
	DECFSZ     R12, 1
	GOTO       L_main9
	DECFSZ     R11, 1
	GOTO       L_main9
;Temporizador_Monedero.c,68 :: 		LED = 0;
	BCF        PORTA+0, 0
;Temporizador_Monedero.c,69 :: 		}
L_main6:
;Temporizador_Monedero.c,70 :: 		INTCON.f7 = 1;       //run interrupts
	BSF        INTCON+0, 7
;Temporizador_Monedero.c,72 :: 		while(1)
L_main10:
;Temporizador_Monedero.c,74 :: 		if (coins >= price)
	MOVF       _price+0, 0
	SUBWF      _coins+0, 0
	BTFSS      STATUS+0, 0
	GOTO       L_main12
;Temporizador_Monedero.c,76 :: 		coins = coins - price;
	MOVF       _price+0, 0
	SUBWF      _coins+0, 1
;Temporizador_Monedero.c,77 :: 		RELAY = 1;
	BSF        PORTA+0, 1
;Temporizador_Monedero.c,78 :: 		Vdelay_ms(time*1000);
	MOVF       _time+0, 0
	MOVWF      R0
	CLRF       R1
	MOVLW      232
	MOVWF      R4
	MOVLW      3
	MOVWF      R5
	CALL       _Mul_16X16_U+0
	MOVF       R0, 0
	MOVWF      FARG_VDelay_ms_Time_ms+0
	MOVF       R1, 0
	MOVWF      FARG_VDelay_ms_Time_ms+1
	CALL       _VDelay_ms+0
;Temporizador_Monedero.c,79 :: 		RELAY = 0;
	BCF        PORTA+0, 1
;Temporizador_Monedero.c,80 :: 		delay_ms(spacing_time);
	MOVLW      61
	MOVWF      R11
	MOVLW      225
	MOVWF      R12
	MOVLW      63
	MOVWF      R13
L_main13:
	DECFSZ     R13, 1
	GOTO       L_main13
	DECFSZ     R12, 1
	GOTO       L_main13
	DECFSZ     R11, 1
	GOTO       L_main13
	NOP
	NOP
;Temporizador_Monedero.c,81 :: 		}
L_main12:
;Temporizador_Monedero.c,83 :: 		if(BT_TIME == 0 && BT_UP == 0 && BT_DOWN == 1)    //increment time
	BTFSC      PORTA+0, 3
	GOTO       L_main16
	BTFSC      PORTA+0, 4
	GOTO       L_main16
	BTFSS      PORTA+0, 5
	GOTO       L_main16
L__main73:
;Temporizador_Monedero.c,85 :: 		time++;
	INCF       _time+0, 1
;Temporizador_Monedero.c,86 :: 		if (time >= max_time)
	MOVLW      100
	SUBWF      _time+0, 0
	BTFSS      STATUS+0, 0
	GOTO       L_main17
;Temporizador_Monedero.c,88 :: 		time = max_time;
	MOVLW      100
	MOVWF      _time+0
;Temporizador_Monedero.c,89 :: 		LED = 1;
	BSF        PORTA+0, 0
;Temporizador_Monedero.c,90 :: 		delay_ms(200);
	MOVLW      9
	MOVWF      R11
	MOVLW      30
	MOVWF      R12
	MOVLW      228
	MOVWF      R13
L_main18:
	DECFSZ     R13, 1
	GOTO       L_main18
	DECFSZ     R12, 1
	GOTO       L_main18
	DECFSZ     R11, 1
	GOTO       L_main18
	NOP
;Temporizador_Monedero.c,91 :: 		LED = 0;
	BCF        PORTA+0, 0
;Temporizador_Monedero.c,92 :: 		}
	GOTO       L_main19
L_main17:
;Temporizador_Monedero.c,95 :: 		LED = 1;
	BSF        PORTA+0, 0
;Temporizador_Monedero.c,96 :: 		delay_ms(50);
	MOVLW      3
	MOVWF      R11
	MOVLW      8
	MOVWF      R12
	MOVLW      119
	MOVWF      R13
L_main20:
	DECFSZ     R13, 1
	GOTO       L_main20
	DECFSZ     R12, 1
	GOTO       L_main20
	DECFSZ     R11, 1
	GOTO       L_main20
;Temporizador_Monedero.c,97 :: 		LED = 0;
	BCF        PORTA+0, 0
;Temporizador_Monedero.c,98 :: 		}
L_main19:
;Temporizador_Monedero.c,99 :: 		EEPROM_write(1,time);
	MOVLW      1
	MOVWF      FARG_EEPROM_Write_Address+0
	MOVF       _time+0, 0
	MOVWF      FARG_EEPROM_Write_data_+0
	CALL       _EEPROM_Write+0
;Temporizador_Monedero.c,100 :: 		while(BT_TIME == 0 && BT_UP == 0 && BT_DOWN == 1)
L_main21:
	BTFSC      PORTA+0, 3
	GOTO       L_main22
	BTFSC      PORTA+0, 4
	GOTO       L_main22
	BTFSS      PORTA+0, 5
	GOTO       L_main22
L__main72:
;Temporizador_Monedero.c,102 :: 		delay_ms(10);
	MOVLW      104
	MOVWF      R12
	MOVLW      228
	MOVWF      R13
L_main25:
	DECFSZ     R13, 1
	GOTO       L_main25
	DECFSZ     R12, 1
	GOTO       L_main25
	NOP
;Temporizador_Monedero.c,103 :: 		}
	GOTO       L_main21
L_main22:
;Temporizador_Monedero.c,104 :: 		delay_ms(500);
	MOVLW      21
	MOVWF      R11
	MOVLW      75
	MOVWF      R12
	MOVLW      190
	MOVWF      R13
L_main26:
	DECFSZ     R13, 1
	GOTO       L_main26
	DECFSZ     R12, 1
	GOTO       L_main26
	DECFSZ     R11, 1
	GOTO       L_main26
	NOP
;Temporizador_Monedero.c,105 :: 		}
L_main16:
;Temporizador_Monedero.c,107 :: 		if(BT_TIME == 0 && BT_UP == 1 && BT_DOWN == 0)    //decrement time
	BTFSC      PORTA+0, 3
	GOTO       L_main29
	BTFSS      PORTA+0, 4
	GOTO       L_main29
	BTFSC      PORTA+0, 5
	GOTO       L_main29
L__main71:
;Temporizador_Monedero.c,109 :: 		time--;
	DECF       _time+0, 1
;Temporizador_Monedero.c,110 :: 		if (time <= min_time)
	MOVF       _time+0, 0
	SUBLW      1
	BTFSS      STATUS+0, 0
	GOTO       L_main30
;Temporizador_Monedero.c,112 :: 		time = min_time;
	MOVLW      1
	MOVWF      _time+0
;Temporizador_Monedero.c,113 :: 		LED = 1;
	BSF        PORTA+0, 0
;Temporizador_Monedero.c,114 :: 		delay_ms(200);
	MOVLW      9
	MOVWF      R11
	MOVLW      30
	MOVWF      R12
	MOVLW      228
	MOVWF      R13
L_main31:
	DECFSZ     R13, 1
	GOTO       L_main31
	DECFSZ     R12, 1
	GOTO       L_main31
	DECFSZ     R11, 1
	GOTO       L_main31
	NOP
;Temporizador_Monedero.c,115 :: 		LED = 0;
	BCF        PORTA+0, 0
;Temporizador_Monedero.c,116 :: 		}
	GOTO       L_main32
L_main30:
;Temporizador_Monedero.c,119 :: 		LED = 1;
	BSF        PORTA+0, 0
;Temporizador_Monedero.c,120 :: 		delay_ms(50);
	MOVLW      3
	MOVWF      R11
	MOVLW      8
	MOVWF      R12
	MOVLW      119
	MOVWF      R13
L_main33:
	DECFSZ     R13, 1
	GOTO       L_main33
	DECFSZ     R12, 1
	GOTO       L_main33
	DECFSZ     R11, 1
	GOTO       L_main33
;Temporizador_Monedero.c,121 :: 		LED = 0;
	BCF        PORTA+0, 0
;Temporizador_Monedero.c,122 :: 		}
L_main32:
;Temporizador_Monedero.c,123 :: 		EEPROM_write(1,time);
	MOVLW      1
	MOVWF      FARG_EEPROM_Write_Address+0
	MOVF       _time+0, 0
	MOVWF      FARG_EEPROM_Write_data_+0
	CALL       _EEPROM_Write+0
;Temporizador_Monedero.c,124 :: 		while(BT_TIME == 0 && BT_UP == 1 && BT_DOWN == 0)
L_main34:
	BTFSC      PORTA+0, 3
	GOTO       L_main35
	BTFSS      PORTA+0, 4
	GOTO       L_main35
	BTFSC      PORTA+0, 5
	GOTO       L_main35
L__main70:
;Temporizador_Monedero.c,126 :: 		delay_ms(10);
	MOVLW      104
	MOVWF      R12
	MOVLW      228
	MOVWF      R13
L_main38:
	DECFSZ     R13, 1
	GOTO       L_main38
	DECFSZ     R12, 1
	GOTO       L_main38
	NOP
;Temporizador_Monedero.c,127 :: 		}
	GOTO       L_main34
L_main35:
;Temporizador_Monedero.c,128 :: 		delay_ms(500);
	MOVLW      21
	MOVWF      R11
	MOVLW      75
	MOVWF      R12
	MOVLW      190
	MOVWF      R13
L_main39:
	DECFSZ     R13, 1
	GOTO       L_main39
	DECFSZ     R12, 1
	GOTO       L_main39
	DECFSZ     R11, 1
	GOTO       L_main39
	NOP
;Temporizador_Monedero.c,129 :: 		}
L_main29:
;Temporizador_Monedero.c,131 :: 		if(BT_TIME == 1 && BT_UP == 0 && BT_DOWN == 1)    //increment price
	BTFSS      PORTA+0, 3
	GOTO       L_main42
	BTFSC      PORTA+0, 4
	GOTO       L_main42
	BTFSS      PORTA+0, 5
	GOTO       L_main42
L__main69:
;Temporizador_Monedero.c,133 :: 		price++;
	INCF       _price+0, 1
;Temporizador_Monedero.c,134 :: 		if (price >= max_price)
	MOVLW      100
	SUBWF      _price+0, 0
	BTFSS      STATUS+0, 0
	GOTO       L_main43
;Temporizador_Monedero.c,136 :: 		price = max_price;
	MOVLW      100
	MOVWF      _price+0
;Temporizador_Monedero.c,137 :: 		LED = 1;
	BSF        PORTA+0, 0
;Temporizador_Monedero.c,138 :: 		delay_ms(200);
	MOVLW      9
	MOVWF      R11
	MOVLW      30
	MOVWF      R12
	MOVLW      228
	MOVWF      R13
L_main44:
	DECFSZ     R13, 1
	GOTO       L_main44
	DECFSZ     R12, 1
	GOTO       L_main44
	DECFSZ     R11, 1
	GOTO       L_main44
	NOP
;Temporizador_Monedero.c,139 :: 		LED = 0;
	BCF        PORTA+0, 0
;Temporizador_Monedero.c,140 :: 		}
	GOTO       L_main45
L_main43:
;Temporizador_Monedero.c,143 :: 		LED = 1;
	BSF        PORTA+0, 0
;Temporizador_Monedero.c,144 :: 		delay_ms(50);
	MOVLW      3
	MOVWF      R11
	MOVLW      8
	MOVWF      R12
	MOVLW      119
	MOVWF      R13
L_main46:
	DECFSZ     R13, 1
	GOTO       L_main46
	DECFSZ     R12, 1
	GOTO       L_main46
	DECFSZ     R11, 1
	GOTO       L_main46
;Temporizador_Monedero.c,145 :: 		LED = 0;
	BCF        PORTA+0, 0
;Temporizador_Monedero.c,146 :: 		}
L_main45:
;Temporizador_Monedero.c,147 :: 		EEPROM_write(0,price);
	CLRF       FARG_EEPROM_Write_Address+0
	MOVF       _price+0, 0
	MOVWF      FARG_EEPROM_Write_data_+0
	CALL       _EEPROM_Write+0
;Temporizador_Monedero.c,148 :: 		while(BT_TIME == 1 && BT_UP == 0 && BT_DOWN == 1)
L_main47:
	BTFSS      PORTA+0, 3
	GOTO       L_main48
	BTFSC      PORTA+0, 4
	GOTO       L_main48
	BTFSS      PORTA+0, 5
	GOTO       L_main48
L__main68:
;Temporizador_Monedero.c,150 :: 		delay_ms(10);
	MOVLW      104
	MOVWF      R12
	MOVLW      228
	MOVWF      R13
L_main51:
	DECFSZ     R13, 1
	GOTO       L_main51
	DECFSZ     R12, 1
	GOTO       L_main51
	NOP
;Temporizador_Monedero.c,151 :: 		}
	GOTO       L_main47
L_main48:
;Temporizador_Monedero.c,152 :: 		delay_ms(500);
	MOVLW      21
	MOVWF      R11
	MOVLW      75
	MOVWF      R12
	MOVLW      190
	MOVWF      R13
L_main52:
	DECFSZ     R13, 1
	GOTO       L_main52
	DECFSZ     R12, 1
	GOTO       L_main52
	DECFSZ     R11, 1
	GOTO       L_main52
	NOP
;Temporizador_Monedero.c,153 :: 		}
L_main42:
;Temporizador_Monedero.c,155 :: 		if(BT_TIME == 1 && BT_UP == 1 && BT_DOWN == 0)    //decrement price
	BTFSS      PORTA+0, 3
	GOTO       L_main55
	BTFSS      PORTA+0, 4
	GOTO       L_main55
	BTFSC      PORTA+0, 5
	GOTO       L_main55
L__main67:
;Temporizador_Monedero.c,157 :: 		price--;
	DECF       _price+0, 1
;Temporizador_Monedero.c,158 :: 		if (price <= min_price)
	MOVF       _price+0, 0
	SUBLW      1
	BTFSS      STATUS+0, 0
	GOTO       L_main56
;Temporizador_Monedero.c,160 :: 		price = min_price;
	MOVLW      1
	MOVWF      _price+0
;Temporizador_Monedero.c,161 :: 		LED = 1;
	BSF        PORTA+0, 0
;Temporizador_Monedero.c,162 :: 		delay_ms(200);
	MOVLW      9
	MOVWF      R11
	MOVLW      30
	MOVWF      R12
	MOVLW      228
	MOVWF      R13
L_main57:
	DECFSZ     R13, 1
	GOTO       L_main57
	DECFSZ     R12, 1
	GOTO       L_main57
	DECFSZ     R11, 1
	GOTO       L_main57
	NOP
;Temporizador_Monedero.c,163 :: 		LED = 0;
	BCF        PORTA+0, 0
;Temporizador_Monedero.c,164 :: 		}
	GOTO       L_main58
L_main56:
;Temporizador_Monedero.c,167 :: 		LED = 1;
	BSF        PORTA+0, 0
;Temporizador_Monedero.c,168 :: 		delay_ms(50);
	MOVLW      3
	MOVWF      R11
	MOVLW      8
	MOVWF      R12
	MOVLW      119
	MOVWF      R13
L_main59:
	DECFSZ     R13, 1
	GOTO       L_main59
	DECFSZ     R12, 1
	GOTO       L_main59
	DECFSZ     R11, 1
	GOTO       L_main59
;Temporizador_Monedero.c,169 :: 		LED = 0;
	BCF        PORTA+0, 0
;Temporizador_Monedero.c,170 :: 		}
L_main58:
;Temporizador_Monedero.c,171 :: 		EEPROM_write(0,price);
	CLRF       FARG_EEPROM_Write_Address+0
	MOVF       _price+0, 0
	MOVWF      FARG_EEPROM_Write_data_+0
	CALL       _EEPROM_Write+0
;Temporizador_Monedero.c,172 :: 		while(BT_TIME == 1 && BT_UP == 1 && BT_DOWN == 0)
L_main60:
	BTFSS      PORTA+0, 3
	GOTO       L_main61
	BTFSS      PORTA+0, 4
	GOTO       L_main61
	BTFSC      PORTA+0, 5
	GOTO       L_main61
L__main66:
;Temporizador_Monedero.c,174 :: 		delay_ms(10);
	MOVLW      104
	MOVWF      R12
	MOVLW      228
	MOVWF      R13
L_main64:
	DECFSZ     R13, 1
	GOTO       L_main64
	DECFSZ     R12, 1
	GOTO       L_main64
	NOP
;Temporizador_Monedero.c,175 :: 		}
	GOTO       L_main60
L_main61:
;Temporizador_Monedero.c,176 :: 		delay_ms(500);
	MOVLW      21
	MOVWF      R11
	MOVLW      75
	MOVWF      R12
	MOVLW      190
	MOVWF      R13
L_main65:
	DECFSZ     R13, 1
	GOTO       L_main65
	DECFSZ     R12, 1
	GOTO       L_main65
	DECFSZ     R11, 1
	GOTO       L_main65
	NOP
;Temporizador_Monedero.c,177 :: 		}
L_main55:
;Temporizador_Monedero.c,178 :: 		}
	GOTO       L_main10
;Temporizador_Monedero.c,180 :: 		}
L_end_main:
	GOTO       $+0
; end of _main
